; Function Attrs: inlinehint mustprogress nounwind willreturn uwtable
define internal fastcc void @Vec_IntPushThree(ptr noundef captures(none) %0, i32 noundef %1, i32 noundef %2, i32 noundef %3) unnamed_addr #4 {
  %5 = getelementptr inbounds nuw i8, ptr %0, i64 4
  %6 = load i32, ptr %5, align 4, !tbaa !15
  %7 = load i32, ptr %0, align 8, !tbaa !31
  %8 = icmp eq i32 %6, %7
  br i1 %8, label %9, label %.Vec_IntGrow.exit10_crit_edge.i

.Vec_IntGrow.exit10_crit_edge.i:                  ; preds = %4
  %.phi.trans.insert.i = getelementptr inbounds nuw i8, ptr %0, i64 8
  %.pre.i = load ptr, ptr %.phi.trans.insert.i, align 8, !tbaa !18
  br label %Vec_IntPush.exit

9:                                                ; preds = %4
  %10 = icmp slt i32 %6, 16
  br i1 %10, label %11, label %19

11:                                               ; preds = %9
  %12 = getelementptr inbounds nuw i8, ptr %0, i64 8
  %13 = load ptr, ptr %12, align 8, !tbaa !18
  %.not9.i.i = icmp eq ptr %13, null
  br i1 %.not9.i.i, label %16, label %14

14:                                               ; preds = %11
  %15 = tail call dereferenceable_or_null(64) ptr @realloc(ptr noundef nonnull %13, i64 noundef 64) #23
  br label %Vec_IntGrow.exit.i

16:                                               ; preds = %11
  %17 = tail call noalias dereferenceable_or_null(64) ptr @malloc(i64 noundef 64) #24
  br label %Vec_IntGrow.exit.i

Vec_IntGrow.exit.i:                               ; preds = %16, %14
  %18 = phi ptr [ %15, %14 ], [ %17, %16 ]
  store ptr %18, ptr %12, align 8, !tbaa !18
  store i32 16, ptr %0, align 8, !tbaa !31
  br label %Vec_IntPush.exit

19:                                               ; preds = %9
  %20 = shl nuw nsw i32 %6, 1
  %21 = getelementptr inbounds nuw i8, ptr %0, i64 8
  %22 = load ptr, ptr %21, align 8, !tbaa !18
  %.not9.i9.i = icmp eq ptr %22, null
  %23 = zext nneg i32 %20 to i64
  %24 = shl nuw nsw i64 %23, 2
  br i1 %.not9.i9.i, label %27, label %25

25:                                               ; preds = %19
  %26 = tail call ptr @realloc(ptr noundef nonnull %22, i64 noundef %24) #23
  br label %29

27:                                               ; preds = %19
  %28 = tail call noalias ptr @malloc(i64 noundef %24) #24
  br label %29

29:                                               ; preds = %27, %25
  %30 = phi ptr [ %26, %25 ], [ %28, %27 ]
  store ptr %30, ptr %21, align 8, !tbaa !18
  store i32 %20, ptr %0, align 8, !tbaa !31
  br label %Vec_IntPush.exit

Vec_IntPush.exit:                                 ; preds = %.Vec_IntGrow.exit10_crit_edge.i, %Vec_IntGrow.exit.i, %29
  %31 = phi ptr [ %.pre.i, %.Vec_IntGrow.exit10_crit_edge.i ], [ %30, %29 ], [ %18, %Vec_IntGrow.exit.i ]
  %32 = load i32, ptr %5, align 4, !tbaa !15
  %33 = add nsw i32 %32, 1
  store i32 %33, ptr %5, align 4, !tbaa !15
  %34 = sext i32 %32 to i64
  %35 = getelementptr inbounds i32, ptr %31, i64 %34
  store i32 %1, ptr %35, align 4, !tbaa !19
  %36 = load i32, ptr %5, align 4, !tbaa !15
  %37 = load i32, ptr %0, align 8, !tbaa !31
  %38 = icmp eq i32 %36, %37
  br i1 %38, label %39, label %Vec_IntPush.exit11

39:                                               ; preds = %Vec_IntPush.exit
  %40 = icmp slt i32 %36, 16
  br i1 %40, label %Vec_IntGrow.exit.i10, label %43

Vec_IntGrow.exit.i10:                             ; preds = %39
  %41 = getelementptr inbounds nuw i8, ptr %0, i64 8
  %42 = tail call dereferenceable_or_null(64) ptr @realloc(ptr noundef nonnull %31, i64 noundef 64) #23
  store ptr %42, ptr %41, align 8, !tbaa !18
  br label %Vec_IntPush.exit11.sink.split

43:                                               ; preds = %39
  %44 = shl nuw nsw i32 %36, 1
  %45 = getelementptr inbounds nuw i8, ptr %0, i64 8
  %46 = zext nneg i32 %44 to i64
  %47 = shl nuw nsw i64 %46, 2
  %48 = tail call ptr @realloc(ptr noundef nonnull %31, i64 noundef %47) #23
  store ptr %48, ptr %45, align 8, !tbaa !18
  br label %Vec_IntPush.exit11.sink.split

Vec_IntPush.exit11.sink.split:                    ; preds = %43, %Vec_IntGrow.exit.i10
  %.sink = phi i32 [ 16, %Vec_IntGrow.exit.i10 ], [ %44, %43 ]
  %.ph = phi ptr [ %42, %Vec_IntGrow.exit.i10 ], [ %48, %43 ]
  store i32 %.sink, ptr %0, align 8, !tbaa !31
  br label %Vec_IntPush.exit11

Vec_IntPush.exit11:                               ; preds = %Vec_IntPush.exit11.sink.split, %Vec_IntPush.exit
  %49 = phi ptr [ %31, %Vec_IntPush.exit ], [ %.ph, %Vec_IntPush.exit11.sink.split ]
  %50 = load i32, ptr %5, align 4, !tbaa !15
  %51 = add nsw i32 %50, 1
  store i32 %51, ptr %5, align 4, !tbaa !15
  %52 = sext i32 %50 to i64
  %53 = getelementptr inbounds i32, ptr %49, i64 %52
  store i32 %2, ptr %53, align 4, !tbaa !19
  %54 = load i32, ptr %5, align 4, !tbaa !15
  %55 = load i32, ptr %0, align 8, !tbaa !31
  %56 = icmp eq i32 %54, %55
  br i1 %56, label %57, label %Vec_IntPush.exit18

57:                                               ; preds = %Vec_IntPush.exit11
  %58 = icmp slt i32 %54, 16
  br i1 %58, label %Vec_IntGrow.exit.i17, label %61

Vec_IntGrow.exit.i17:                             ; preds = %57
  %59 = getelementptr inbounds nuw i8, ptr %0, i64 8
  %60 = tail call dereferenceable_or_null(64) ptr @realloc(ptr noundef nonnull %49, i64 noundef 64) #23
  store ptr %60, ptr %59, align 8, !tbaa !18
  br label %Vec_IntPush.exit18.sink.split

61:                                               ; preds = %57
  %62 = shl nuw nsw i32 %54, 1
  %63 = getelementptr inbounds nuw i8, ptr %0, i64 8
  %64 = zext nneg i32 %62 to i64
  %65 = shl nuw nsw i64 %64, 2
  %66 = tail call ptr @realloc(ptr noundef nonnull %49, i64 noundef %65) #23
  store ptr %66, ptr %63, align 8, !tbaa !18
  br label %Vec_IntPush.exit18.sink.split

Vec_IntPush.exit18.sink.split:                    ; preds = %61, %Vec_IntGrow.exit.i17
  %.sink20 = phi i32 [ 16, %Vec_IntGrow.exit.i17 ], [ %62, %61 ]
  %.ph19 = phi ptr [ %60, %Vec_IntGrow.exit.i17 ], [ %66, %61 ]
  store i32 %.sink20, ptr %0, align 8, !tbaa !31
  br label %Vec_IntPush.exit18

Vec_IntPush.exit18:                               ; preds = %Vec_IntPush.exit18.sink.split, %Vec_IntPush.exit11
  %67 = phi ptr [ %49, %Vec_IntPush.exit11 ], [ %.ph19, %Vec_IntPush.exit18.sink.split ]
  %68 = load i32, ptr %5, align 4, !tbaa !15
  %69 = add nsw i32 %68, 1
  store i32 %69, ptr %5, align 4, !tbaa !15
  %70 = sext i32 %68 to i64
  %71 = getelementptr inbounds i32, ptr %67, i64 %70
  store i32 %3, ptr %71, align 4, !tbaa !19
  ret void
}